; ModuleID = '35/2164.c'
source_filename = "35/2164.c"
target datalayout = "e-m:e-p270:32:32-p271:32:32-p272:64:64-i64:64-f80:128-n8:16:32:64-S128"
target triple = "x86_64-pc-linux-gnu"

@.str = private unnamed_addr constant [6 x i8] c"%d,%d\00", align 1
@.str.1 = private unnamed_addr constant [3 x i8] c"%d\00", align 1
@.str.2 = private unnamed_addr constant [6 x i8] c"%d+%d\00", align 1
@.str.3 = private unnamed_addr constant [3 x i8] c"No\00", align 1

; Function Attrs: noinline nounwind uwtable
define dso_local i32 @main() #0 {
  %1 = alloca i32, align 4
  %2 = alloca i32, align 4
  %3 = alloca i32, align 4
  %4 = alloca [8 x [8 x i32]], align 16
  %5 = alloca i32, align 4
  %6 = alloca i32, align 4
  %7 = alloca i32, align 4
  %8 = alloca [8 x i32], align 16
  %9 = alloca [8 x i32], align 16
  %10 = alloca [8 x i32], align 16
  store i32 0, i32* %1, align 4
  %11 = bitcast [8 x [8 x i32]]* %4 to i8*
  call void @llvm.memset.p0i8.i64(i8* align 16 %11, i8 0, i64 256, i1 false)
  %12 = call i32 (i8*, ...) @__isoc99_scanf(i8* getelementptr inbounds ([6 x i8], [6 x i8]* @.str, i64 0, i64 0), i32* %2, i32* %3)
  store i32 0, i32* %5, align 4
  br label %13

13:                                               ; preds = %34, %0
  %14 = load i32, i32* %5, align 4
  %15 = load i32, i32* %2, align 4
  %16 = icmp slt i32 %14, %15
  br i1 %16, label %17, label %37

17:                                               ; preds = %13
  store i32 0, i32* %6, align 4
  br label %18

18:                                               ; preds = %30, %17
  %19 = load i32, i32* %6, align 4
  %20 = load i32, i32* %3, align 4
  %21 = icmp slt i32 %19, %20
  br i1 %21, label %22, label %33

22:                                               ; preds = %18
  %23 = load i32, i32* %5, align 4
  %24 = sext i32 %23 to i64
  %25 = getelementptr inbounds [8 x [8 x i32]], [8 x [8 x i32]]* %4, i64 0, i64 %24
  %26 = load i32, i32* %6, align 4
  %27 = sext i32 %26 to i64
  %28 = getelementptr inbounds [8 x i32], [8 x i32]* %25, i64 0, i64 %27
  %29 = call i32 (i8*, ...) @__isoc99_scanf(i8* getelementptr inbounds ([3 x i8], [3 x i8]* @.str.1, i64 0, i64 0), i32* %28)
  br label %30

30:                                               ; preds = %22
  %31 = load i32, i32* %6, align 4
  %32 = add nsw i32 %31, 1
  store i32 %32, i32* %6, align 4
  br label %18

33:                                               ; preds = %18
  br label %34

34:                                               ; preds = %33
  %35 = load i32, i32* %5, align 4
  %36 = add nsw i32 %35, 1
  store i32 %36, i32* %5, align 4
  br label %13

37:                                               ; preds = %13
  store i32 0, i32* %5, align 4
  br label %38

38:                                               ; preds = %98, %37
  %39 = load i32, i32* %5, align 4
  %40 = load i32, i32* %2, align 4
  %41 = icmp slt i32 %39, %40
  br i1 %41, label %42, label %101

42:                                               ; preds = %38
  store i32 0, i32* %6, align 4
  br label %43

43:                                               ; preds = %94, %42
  %44 = load i32, i32* %6, align 4
  %45 = load i32, i32* %3, align 4
  %46 = sub nsw i32 %45, 1
  %47 = icmp slt i32 %44, %46
  br i1 %47, label %48, label %97

48:                                               ; preds = %43
  %49 = load i32, i32* %5, align 4
  %50 = sext i32 %49 to i64
  %51 = getelementptr inbounds [8 x [8 x i32]], [8 x [8 x i32]]* %4, i64 0, i64 %50
  %52 = getelementptr inbounds [8 x i32], [8 x i32]* %51, i64 0, i64 0
  %53 = load i32, i32* %52, align 16
  %54 = load i32, i32* %5, align 4
  %55 = sext i32 %54 to i64
  %56 = getelementptr inbounds [8 x i32], [8 x i32]* %8, i64 0, i64 %55
  store i32 %53, i32* %56, align 4
  %57 = load i32, i32* %5, align 4
  %58 = sext i32 %57 to i64
  %59 = getelementptr inbounds [8 x i32], [8 x i32]* %9, i64 0, i64 %58
  store i32 0, i32* %59, align 4
  %60 = load i32, i32* %5, align 4
  %61 = sext i32 %60 to i64
  %62 = getelementptr inbounds [8 x [8 x i32]], [8 x [8 x i32]]* %4, i64 0, i64 %61
  %63 = load i32, i32* %6, align 4
  %64 = sext i32 %63 to i64
  %65 = getelementptr inbounds [8 x i32], [8 x i32]* %62, i64 0, i64 %64
  %66 = load i32, i32* %65, align 4
  %67 = load i32, i32* %5, align 4
  %68 = sext i32 %67 to i64
  %69 = getelementptr inbounds [8 x [8 x i32]], [8 x [8 x i32]]* %4, i64 0, i64 %68
  %70 = load i32, i32* %6, align 4
  %71 = add nsw i32 %70, 1
  %72 = sext i32 %71 to i64
  %73 = getelementptr inbounds [8 x i32], [8 x i32]* %69, i64 0, i64 %72
  %74 = load i32, i32* %73, align 4
  %75 = icmp slt i32 %66, %74
  br i1 %75, label %76, label %93

76:                                               ; preds = %48
  %77 = load i32, i32* %5, align 4
  %78 = sext i32 %77 to i64
  %79 = getelementptr inbounds [8 x [8 x i32]], [8 x [8 x i32]]* %4, i64 0, i64 %78
  %80 = load i32, i32* %6, align 4
  %81 = add nsw i32 %80, 1
  %82 = sext i32 %81 to i64
  %83 = getelementptr inbounds [8 x i32], [8 x i32]* %79, i64 0, i64 %82
  %84 = load i32, i32* %83, align 4
  %85 = load i32, i32* %5, align 4
  %86 = sext i32 %85 to i64
  %87 = getelementptr inbounds [8 x i32], [8 x i32]* %8, i64 0, i64 %86
  store i32 %84, i32* %87, align 4
  %88 = load i32, i32* %6, align 4
  %89 = add nsw i32 %88, 1
  %90 = load i32, i32* %5, align 4
  %91 = sext i32 %90 to i64
  %92 = getelementptr inbounds [8 x i32], [8 x i32]* %9, i64 0, i64 %91
  store i32 %89, i32* %92, align 4
  br label %93

93:                                               ; preds = %76, %48
  br label %94

94:                                               ; preds = %93
  %95 = load i32, i32* %6, align 4
  %96 = add nsw i32 %95, 1
  store i32 %96, i32* %6, align 4
  br label %43

97:                                               ; preds = %43
  br label %98

98:                                               ; preds = %97
  %99 = load i32, i32* %5, align 4
  %100 = add nsw i32 %99, 1
  store i32 %100, i32* %5, align 4
  br label %38

101:                                              ; preds = %38
  store i32 0, i32* %5, align 4
  br label %102

102:                                              ; preds = %190, %101
  %103 = load i32, i32* %5, align 4
  %104 = load i32, i32* %2, align 4
  %105 = icmp slt i32 %103, %104
  br i1 %105, label %106, label %193

106:                                              ; preds = %102
  store i32 0, i32* %7, align 4
  br label %107

107:                                              ; preds = %162, %106
  %108 = load i32, i32* %7, align 4
  %109 = load i32, i32* %2, align 4
  %110 = sub nsw i32 %109, 1
  %111 = icmp slt i32 %108, %110
  br i1 %111, label %112, label %165

112:                                              ; preds = %107
  %113 = getelementptr inbounds [8 x [8 x i32]], [8 x [8 x i32]]* %4, i64 0, i64 0
  %114 = load i32, i32* %5, align 4
  %115 = sext i32 %114 to i64
  %116 = getelementptr inbounds [8 x i32], [8 x i32]* %9, i64 0, i64 %115
  %117 = load i32, i32* %116, align 4
  %118 = sext i32 %117 to i64
  %119 = getelementptr inbounds [8 x i32], [8 x i32]* %113, i64 0, i64 %118
  %120 = load i32, i32* %119, align 4
  %121 = load i32, i32* %5, align 4
  %122 = sext i32 %121 to i64
  %123 = getelementptr inbounds [8 x i32], [8 x i32]* %10, i64 0, i64 %122
  store i32 %120, i32* %123, align 4
  %124 = load i32, i32* %7, align 4
  %125 = sext i32 %124 to i64
  %126 = getelementptr inbounds [8 x [8 x i32]], [8 x [8 x i32]]* %4, i64 0, i64 %125
  %127 = load i32, i32* %5, align 4
  %128 = sext i32 %127 to i64
  %129 = getelementptr inbounds [8 x i32], [8 x i32]* %9, i64 0, i64 %128
  %130 = load i32, i32* %129, align 4
  %131 = sext i32 %130 to i64
  %132 = getelementptr inbounds [8 x i32], [8 x i32]* %126, i64 0, i64 %131
  %133 = load i32, i32* %132, align 4
  %134 = load i32, i32* %7, align 4
  %135 = add nsw i32 %134, 1
  %136 = sext i32 %135 to i64
  %137 = getelementptr inbounds [8 x [8 x i32]], [8 x [8 x i32]]* %4, i64 0, i64 %136
  %138 = load i32, i32* %5, align 4
  %139 = sext i32 %138 to i64
  %140 = getelementptr inbounds [8 x i32], [8 x i32]* %9, i64 0, i64 %139
  %141 = load i32, i32* %140, align 4
  %142 = sext i32 %141 to i64
  %143 = getelementptr inbounds [8 x i32], [8 x i32]* %137, i64 0, i64 %142
  %144 = load i32, i32* %143, align 4
  %145 = icmp sgt i32 %133, %144
  br i1 %145, label %146, label %161

146:                                              ; preds = %112
  %147 = load i32, i32* %7, align 4
  %148 = add nsw i32 %147, 1
  %149 = sext i32 %148 to i64
  %150 = getelementptr inbounds [8 x [8 x i32]], [8 x [8 x i32]]* %4, i64 0, i64 %149
  %151 = load i32, i32* %5, align 4
  %152 = sext i32 %151 to i64
  %153 = getelementptr inbounds [8 x i32], [8 x i32]* %9, i64 0, i64 %152
  %154 = load i32, i32* %153, align 4
  %155 = sext i32 %154 to i64
  %156 = getelementptr inbounds [8 x i32], [8 x i32]* %150, i64 0, i64 %155
  %157 = load i32, i32* %156, align 4
  %158 = load i32, i32* %5, align 4
  %159 = sext i32 %158 to i64
  %160 = getelementptr inbounds [8 x i32], [8 x i32]* %10, i64 0, i64 %159
  store i32 %157, i32* %160, align 4
  br label %161

161:                                              ; preds = %146, %112
  br label %162

162:                                              ; preds = %161
  %163 = load i32, i32* %7, align 4
  %164 = add nsw i32 %163, 1
  store i32 %164, i32* %7, align 4
  br label %107

165:                                              ; preds = %107
  %166 = load i32, i32* %5, align 4
  %167 = sext i32 %166 to i64
  %168 = getelementptr inbounds [8 x i32], [8 x i32]* %8, i64 0, i64 %167
  %169 = load i32, i32* %168, align 4
  %170 = load i32, i32* %5, align 4
  %171 = sext i32 %170 to i64
  %172 = getelementptr inbounds [8 x i32], [8 x i32]* %10, i64 0, i64 %171
  %173 = load i32, i32* %172, align 4
  %174 = icmp eq i32 %169, %173
  br i1 %174, label %175, label %182

175:                                              ; preds = %165
  %176 = load i32, i32* %5, align 4
  %177 = sext i32 %176 to i64
  %178 = getelementptr inbounds [8 x i32], [8 x i32]* %9, i64 0, i64 %177
  %179 = load i32, i32* %178, align 4
  %180 = load i32, i32* %5, align 4
  %181 = call i32 (i8*, ...) @printf(i8* getelementptr inbounds ([6 x i8], [6 x i8]* @.str.2, i64 0, i64 0), i32 %179, i32 %180)
  br label %193

182:                                              ; preds = %165
  %183 = load i32, i32* %5, align 4
  %184 = load i32, i32* %2, align 4
  %185 = sub nsw i32 %184, 1
  %186 = icmp ne i32 %183, %185
  br i1 %186, label %187, label %188

187:                                              ; preds = %182
  br label %190

188:                                              ; preds = %182
  %189 = call i32 (i8*, ...) @printf(i8* getelementptr inbounds ([3 x i8], [3 x i8]* @.str.3, i64 0, i64 0))
  br label %190

190:                                              ; preds = %188, %187
  %191 = load i32, i32* %5, align 4
  %192 = add nsw i32 %191, 1
  store i32 %192, i32* %5, align 4
  br label %102

193:                                              ; preds = %175, %102
  ret i32 0
}

; Function Attrs: argmemonly nounwind willreturn
declare void @llvm.memset.p0i8.i64(i8* nocapture writeonly, i8, i64, i1 immarg) #1

declare dso_local i32 @__isoc99_scanf(i8*, ...) #2

declare dso_local i32 @printf(i8*, ...) #2


!llvm.module.flags = !{!0}
!llvm.ident = !{!1}

!0 = !{i32 1, !"wchar_size", i32 4}
!1 = !{!"clang version 10.0.0-4ubuntu1 "}
